	.text
	.file	"forwarding_micro.c"
	.file	0 "/work/muke/PND-Loads/benchmarks" "forwarding_micro.c" md5 0xac592b9a1f78a2e962d53a52c82fafbc
	.file	1 "/usr/bin/../lib/gcc-cross/aarch64-linux-gnu/12/../../../../aarch64-linux-gnu/include" "stdint.h" md5 0xe1a448af0fce22a39bc183d2915834c7
	.section	.rodata.cst8,"aM",@progbits,8
	.p2align	3                               // -- Begin function main
.LCPI0_0:
	.xword	0x4009327bb2fec56d              // double 3.1496499999999998
.LCPI0_1:
	.xword	0x4005dbd512ec6bcf              // double 2.7323400000000002
	.text
	.globl	main
	.p2align	2
	.type	main,@function
main:                                   // @main
.Lfunc_begin0:
	.loc	0 4 0                           // forwarding_micro.c:4:0
	.cfi_startproc
// %bb.0:
	//DEBUG_VALUE: main:argc <- $w0
	//DEBUG_VALUE: main:argv <- $x1
	sub	sp, sp, #48
	.cfi_def_cfa_offset 48
	stp	x29, x30, [sp, #16]             // 16-byte Folded Spill
	stp	x20, x19, [sp, #32]             // 16-byte Folded Spill
	add	x29, sp, #16
	.cfi_def_cfa w29, 32
	.cfi_offset w19, -8
	.cfi_offset w20, -16
	.cfi_offset w30, -24
	.cfi_offset w29, -32
.Ltmp0:
	.loc	0 6 18 prologue_end             // forwarding_micro.c:6:18
	ldr	x0, [x1, #8]
.Ltmp1:
	//DEBUG_VALUE: main:argc <- [DW_OP_LLVM_entry_value 1] $w0
	.loc	0 6 13 is_stmt 0                // forwarding_micro.c:6:13
	bl	atoi
.Ltmp2:
	//DEBUG_VALUE: main:argv <- [DW_OP_LLVM_entry_value 1] $x1
	mov	w19, w0
.Ltmp3:
	//DEBUG_VALUE: main:n <- $w19
	.loc	0 7 26 is_stmt 1                // forwarding_micro.c:7:26
	mov	w0, #4
	bl	malloc
	.loc	0 8 14                          // forwarding_micro.c:8:14
	lsl	w8, w19, #1
	.loc	0 7 26                          // forwarding_micro.c:7:26
	mov	x20, x0
.Ltmp4:
	//DEBUG_VALUE: main:load <- $x20
	.loc	0 8 14                          // forwarding_micro.c:8:14
	add	w9, w8, w19
	.loc	0 9 28                          // forwarding_micro.c:9:28
	sbfiz	x0, x8, #2, #32
	.loc	0 8 11                          // forwarding_micro.c:8:11
	str	w9, [x20]
	.loc	0 9 18                          // forwarding_micro.c:9:18
	bl	malloc
	.loc	0 14 33                         // forwarding_micro.c:14:33
	sub	w8, w19, #1
	adrp	x9, .LCPI0_0
	adrp	x10, .LCPI0_1
	.loc	0 15 31                         // forwarding_micro.c:15:31
	scvtf	d2, w19
	.loc	0 10 5                          // forwarding_micro.c:10:5
	//APP
	dsb	sy
	isb

	//NO_APP
	.loc	0 14 31                         // forwarding_micro.c:14:31
	scvtf	d0, w8
	ldr	d1, [x9, :lo12:.LCPI0_0]
	ldr	d3, [x10, :lo12:.LCPI0_1]
	.loc	0 14 29 is_stmt 0               // forwarding_micro.c:14:29
	fmul	d0, d0, d1
.Ltmp5:
	//DEBUG_VALUE: main:offset <- $d0
	.loc	0 15 29 is_stmt 1               // forwarding_micro.c:15:29
	fmul	d1, d2, d3
.Ltmp6:
	//DEBUG_VALUE: main:factor <- $d1
	.loc	0 16 40                         // forwarding_micro.c:16:40
	fdiv	d0, d0, d1
.Ltmp7:
	.loc	0 16 47 is_stmt 0               // forwarding_micro.c:16:47
	fdiv	d0, d0, d1
	.loc	0 16 22                         // forwarding_micro.c:16:22
	fcvtzu	x8, d0
.Ltmp8:
	//DEBUG_VALUE: main:store <- $x0
	.loc	0 16 57                         // forwarding_micro.c:16:57
	str	w19, [x0, x8, lsl #2]
	.loc	0 17 22 is_stmt 1               // forwarding_micro.c:17:22
	ldr	w8, [x20]
	.loc	0 17 18 is_stmt 0               // forwarding_micro.c:17:18
	stur	w8, [x29, #-4]
.Ltmp9:
	.loc	0 19 9 is_stmt 1                // forwarding_micro.c:19:9
	ldur	w8, [x29, #-4]
	.loc	0 19 11 is_stmt 0               // forwarding_micro.c:19:11
	sdiv	w9, w8, w19
	msub	w8, w9, w19, w8
	.loc	0 19 15                         // forwarding_micro.c:19:15
	cmp	w8, #0
	cset	w0, eq
.Ltmp10:
	.cfi_def_cfa wsp, 48
	.loc	0 22 1 is_stmt 1                // forwarding_micro.c:22:1
	ldp	x20, x19, [sp, #32]             // 16-byte Folded Reload
.Ltmp11:
	ldp	x29, x30, [sp, #16]             // 16-byte Folded Reload
	add	sp, sp, #48
	.cfi_def_cfa_offset 0
	.cfi_restore w19
	.cfi_restore w20
	.cfi_restore w30
	.cfi_restore w29
	ret
.Ltmp12:
.Lfunc_end0:
	.size	main, .Lfunc_end0-main
	.cfi_endproc
                                        // -- End function
	.section	".note.GNU-stack","",@progbits